; Function Attrs: mustprogress nofree norecurse nosync nounwind willreturn memory(argmem: readwrite) uwtable
define hidden void @VP8DefaultProbas(ptr noundef writeonly captures(none) initializes((3616, 3619), (3620, 4676), (23496, 23504)) %0) local_unnamed_addr #0 {
  %2 = getelementptr inbounds nuw i8, ptr %0, i64 3616
  %3 = getelementptr inbounds nuw i8, ptr %0, i64 23500
  store i32 0, ptr %3, align 4, !tbaa !3
  tail call void @llvm.memset.p0.i64(ptr noundef nonnull align 8 dereferenceable(3) %2, i8 -1, i64 3, i1 false)
  %4 = getelementptr inbounds nuw i8, ptr %0, i64 3620
  tail call void @llvm.memcpy.p0.p0.i64(ptr noundef nonnull align 4 dereferenceable(1056) %4, ptr noundef nonnull align 16 dereferenceable(1056) @VP8CoeffsProba0, i64 1056, i1 false)
  %5 = getelementptr inbounds nuw i8, ptr %0, i64 23496
  store i32 1, ptr %5, align 8, !tbaa !8
  ret void
}